target datalayout = "e-m:e-p270:32:32-p271:32:32-p272:64:64-i64:64-i128:128-f80:128-n8:16:32:64-S128"
target triple = "x86_64-pc-linux-gnu"

%struct.nstime_t = type { i64, i32 }
%struct._packet_info = type { ptr, ptr, i32, i32, %struct.nstime_t, %struct.nstime_t, %struct.nstime_t, i8, ptr, ptr, ptr, ptr, %struct._address, %struct._address, %struct._address, %struct._address, %struct._address, %struct._address, i32, ptr, i8, [3 x i8], %struct.anon, i32, i32, i32, i32, ptr, i8, ptr, ptr, i16, i16, i32, i32, i16, i32, i32, ptr, ptr, ptr, i8, i8, i16, i16, i16, i32, i16, i16, ptr, ptr, ptr, ptr, ptr, i32, i32 }
%struct._address = type { i32, i32, ptr, ptr }
%struct.anon = type { i8, [3 x i8] }

@hf_nlm_cookie = internal global i32 0, align 4
@hf_nlm_lock_caller_name = internal global i32 0, align 4
@hf_nlm_lock_owner = internal global i32 0, align 4
@hf_nlm_reclaim = internal global i32 0, align 4
@hf_nlm_share = internal global i32 0, align 4
@hf_nlm_share_mode = internal global i32 0, align 4
@hf_nlm_share_access = internal global i32 0, align 4
@ett_nlm_lock = internal global i32 0, align 4
@.str.112 = private unnamed_addr constant [3 x i8] c"fh\00", align 1
@.str.113 = private unnamed_addr constant [11 x i8] c" FH:0x%08x\00", align 1

; Function Attrs: null_pointer_is_valid sspstrong uwtable
define internal i32 @dissect_nlm_share(ptr noundef %0, i32 noundef %1, ptr noundef %2, ptr noundef %3, i32 noundef %4, ptr noundef %5) #0 {
  %7 = alloca ptr, align 8
  %8 = alloca i32, align 4
  %9 = alloca ptr, align 8
  %10 = alloca ptr, align 8
  %11 = alloca i32, align 4
  %12 = alloca ptr, align 8
  %13 = alloca ptr, align 8
  %14 = alloca ptr, align 8
  %15 = alloca i32, align 4
  store ptr %0, ptr %7, align 8
  store i32 %1, ptr %8, align 4
  store ptr %2, ptr %9, align 8
  store ptr %3, ptr %10, align 8
  store i32 %4, ptr %11, align 4
  store ptr %5, ptr %12, align 8
  call void @llvm.lifetime.start.p0(i64 8, ptr %13) #8
  store ptr null, ptr %13, align 8
  call void @llvm.lifetime.start.p0(i64 8, ptr %14) #8
  store ptr null, ptr %14, align 8
  call void @llvm.lifetime.start.p0(i64 4, ptr %15) #8
  %16 = load ptr, ptr %7, align 8
  %17 = load ptr, ptr %10, align 8
  %18 = load i32, ptr @hf_nlm_cookie, align 4
  %19 = load i32, ptr %8, align 4
  %20 = call i32 @dissect_rpc_data(ptr noundef %16, ptr noundef %17, i32 noundef %18, i32 noundef %19)
  store i32 %20, ptr %8, align 4
  %21 = load ptr, ptr %10, align 8
  %22 = icmp ne ptr %21, null
  br i1 %22, label %23, label %36

23:                                               ; preds = %6
  %24 = load ptr, ptr %10, align 8
  %25 = load i32, ptr @hf_nlm_share, align 4
  %26 = load ptr, ptr %7, align 8
  %27 = load i32, ptr %8, align 4
  %28 = call ptr @proto_tree_add_item(ptr noundef %24, i32 noundef %25, ptr noundef %26, i32 noundef %27, i32 noundef -1, i32 noundef 0)
  store ptr %28, ptr %13, align 8
  %29 = load ptr, ptr %13, align 8
  %30 = icmp ne ptr %29, null
  br i1 %30, label %31, label %35

31:                                               ; preds = %23
  %32 = load ptr, ptr %13, align 8
  %33 = load i32, ptr @ett_nlm_lock, align 4
  %34 = call ptr @proto_item_add_subtree(ptr noundef %32, i32 noundef %33)
  store ptr %34, ptr %14, align 8
  br label %35

35:                                               ; preds = %31, %23
  br label %36

36:                                               ; preds = %35, %6
  %37 = load ptr, ptr %7, align 8
  %38 = load ptr, ptr %14, align 8
  %39 = load i32, ptr @hf_nlm_lock_caller_name, align 4
  %40 = load i32, ptr %8, align 4
  %41 = call i32 @dissect_rpc_string(ptr noundef %37, ptr noundef %38, i32 noundef %39, i32 noundef %40, ptr noundef null)
  store i32 %41, ptr %8, align 4
  %42 = load ptr, ptr %7, align 8
  %43 = load i32, ptr %8, align 4
  %44 = load ptr, ptr %9, align 8
  %45 = load ptr, ptr %14, align 8
  %46 = load ptr, ptr %12, align 8
  %47 = call i32 @dissect_nfs3_fh(ptr noundef %42, i32 noundef %43, ptr noundef %44, ptr noundef %45, ptr noundef @.str.112, ptr noundef %15, ptr noundef %46)
  store i32 %47, ptr %8, align 4
  %48 = load ptr, ptr %9, align 8
  %49 = getelementptr inbounds nuw %struct._packet_info, ptr %48, i32 0, i32 1
  %50 = load ptr, ptr %49, align 8
  %51 = load i32, ptr %15, align 4
  call void (ptr, i32, ptr, ...) @col_append_fstr(ptr noundef %50, i32 noundef 25, ptr noundef @.str.113, i32 noundef %51)
  %52 = load ptr, ptr %7, align 8
  %53 = load ptr, ptr %14, align 8
  %54 = load i32, ptr @hf_nlm_lock_owner, align 4
  %55 = load i32, ptr %8, align 4
  %56 = call i32 @dissect_rpc_data(ptr noundef %52, ptr noundef %53, i32 noundef %54, i32 noundef %55)
  store i32 %56, ptr %8, align 4
  %57 = load ptr, ptr %7, align 8
  %58 = load ptr, ptr %14, align 8
  %59 = load i32, ptr @hf_nlm_share_mode, align 4
  %60 = load i32, ptr %8, align 4
  %61 = call i32 @dissect_rpc_uint32(ptr noundef %57, ptr noundef %58, i32 noundef %59, i32 noundef %60)
  store i32 %61, ptr %8, align 4
  %62 = load ptr, ptr %7, align 8
  %63 = load ptr, ptr %14, align 8
  %64 = load i32, ptr @hf_nlm_share_access, align 4
  %65 = load i32, ptr %8, align 4
  %66 = call i32 @dissect_rpc_uint32(ptr noundef %62, ptr noundef %63, i32 noundef %64, i32 noundef %65)
  store i32 %66, ptr %8, align 4
  %67 = load ptr, ptr %7, align 8
  %68 = load ptr, ptr %10, align 8
  %69 = load i32, ptr @hf_nlm_reclaim, align 4
  %70 = load i32, ptr %8, align 4
  %71 = call i32 @dissect_rpc_bool(ptr noundef %67, ptr noundef %68, i32 noundef %69, i32 noundef %70)
  store i32 %71, ptr %8, align 4
  %72 = load i32, ptr %8, align 4
  call void @llvm.lifetime.end.p0(i64 4, ptr %15) #8
  call void @llvm.lifetime.end.p0(i64 8, ptr %14) #8
  call void @llvm.lifetime.end.p0(i64 8, ptr %13) #8
  ret i32 %72
}