; Function Attrs: null_pointer_is_valid sspstrong uwtable
define internal fastcc i32 @dissect_nlm_share(ptr noundef %0, ptr noundef %1, ptr noundef %2, ptr noundef %3) unnamed_addr #0 {
  %5 = alloca i32, align 4
  call void @llvm.lifetime.start.p0(i64 4, ptr nonnull %5) #10
  %6 = load i32, ptr @hf_nlm_cookie, align 4
  %7 = tail call i32 @dissect_rpc_data(ptr noundef %0, ptr noundef %2, i32 noundef %6, i32 noundef 0)
  %.not = icmp eq ptr %2, null
  br i1 %.not, label %14, label %8

8:                                                ; preds = %4
  %9 = load i32, ptr @hf_nlm_share, align 4
  %10 = tail call ptr @proto_tree_add_item(ptr noundef nonnull %2, i32 noundef %9, ptr noundef %0, i32 noundef %7, i32 noundef -1, i32 noundef 0)
  %.not32 = icmp eq ptr %10, null
  br i1 %.not32, label %14, label %11

11:                                               ; preds = %8
  %12 = load i32, ptr @ett_nlm_lock, align 4
  %13 = tail call ptr @proto_item_add_subtree(ptr noundef nonnull %10, i32 noundef %12)
  br label %14

14:                                               ; preds = %8, %11, %4
  %.0 = phi ptr [ %13, %11 ], [ null, %8 ], [ null, %4 ]
  %15 = load i32, ptr @hf_nlm_lock_caller_name, align 4
  %16 = tail call i32 @dissect_rpc_string(ptr noundef %0, ptr noundef %.0, i32 noundef %15, i32 noundef %7, ptr noundef null)
  %17 = call i32 @dissect_nfs3_fh(ptr noundef %0, i32 noundef %16, ptr noundef %1, ptr noundef %.0, ptr noundef nonnull @.str.112, ptr noundef nonnull %5, ptr noundef %3)
  %18 = getelementptr inbounds nuw i8, ptr %1, i64 8
  %19 = load ptr, ptr %18, align 8
  %20 = load i32, ptr %5, align 4
  call void (ptr, i32, ptr, ...) @col_append_fstr(ptr noundef %19, i32 noundef 25, ptr noundef nonnull @.str.113, i32 noundef %20)
  %21 = load i32, ptr @hf_nlm_lock_owner, align 4
  %22 = call i32 @dissect_rpc_data(ptr noundef %0, ptr noundef %.0, i32 noundef %21, i32 noundef %17)
  %23 = load i32, ptr @hf_nlm_share_mode, align 4
  %24 = call i32 @dissect_rpc_uint32(ptr noundef %0, ptr noundef %.0, i32 noundef %23, i32 noundef %22)
  %25 = load i32, ptr @hf_nlm_share_access, align 4
  %26 = call i32 @dissect_rpc_uint32(ptr noundef %0, ptr noundef %.0, i32 noundef %25, i32 noundef %24)
  %27 = load i32, ptr @hf_nlm_reclaim, align 4
  %28 = call i32 @dissect_rpc_bool(ptr noundef %0, ptr noundef %2, i32 noundef %27, i32 noundef %26)
  call void @llvm.lifetime.end.p0(i64 4, ptr nonnull %5) #10
  ret i32 %28
}